target datalayout = "e-m:e-p270:32:32-p271:32:32-p272:64:64-i64:64-i128:128-f80:128-n8:16:32:64-S128"
target triple = "x86_64-pc-linux-gnu"

@hf_bssgp_rrlp_apdu = internal global i32 0, align 4
@.str.206 = private unnamed_addr constant [10 x i8] c"RRLP APDU\00", align 1
@rrlp_handle = internal global ptr null, align 8
@gparent_tree = internal global ptr null, align 8

; Function Attrs: null_pointer_is_valid sspstrong uwtable
define internal zeroext i16 @de_bssgp_rrlp_apdu(ptr noundef %0, ptr noundef %1, ptr noundef %2, i32 noundef %3, i32 noundef %4, ptr noundef %5, i32 noundef %6) #1 {
  %8 = alloca ptr, align 8
  %9 = alloca ptr, align 8
  %10 = alloca ptr, align 8
  %11 = alloca i32, align 4
  %12 = alloca i32, align 4
  %13 = alloca ptr, align 8
  %14 = alloca i32, align 4
  %15 = alloca ptr, align 8
  %16 = alloca i32, align 4
  store ptr %0, ptr %8, align 8
  store ptr %1, ptr %9, align 8
  store ptr %2, ptr %10, align 8
  store i32 %3, ptr %11, align 4
  store i32 %4, ptr %12, align 4
  store ptr %5, ptr %13, align 8
  store i32 %6, ptr %14, align 4
  call void @llvm.lifetime.start.p0(i64 8, ptr %15) #4
  store ptr null, ptr %15, align 8
  call void @llvm.lifetime.start.p0(i64 4, ptr %16) #4
  %17 = load i32, ptr %11, align 4
  store i32 %17, ptr %16, align 4
  %18 = load i32, ptr %12, align 4
  %19 = icmp ugt i32 %18, 0
  br i1 %19, label %20, label %30

20:                                               ; preds = %7
  %21 = load ptr, ptr %8, align 8
  %22 = load i32, ptr %16, align 4
  %23 = call ptr @tvb_new_subset_remaining(ptr noundef %21, i32 noundef %22)
  store ptr %23, ptr %15, align 8
  %24 = load ptr, ptr %9, align 8
  %25 = load i32, ptr @hf_bssgp_rrlp_apdu, align 4
  %26 = load ptr, ptr %8, align 8
  %27 = load i32, ptr %16, align 4
  %28 = load i32, ptr %12, align 4
  %29 = call ptr (ptr, i32, ptr, i32, i32, ptr, ptr, ...) @proto_tree_add_bytes_format(ptr noundef %24, i32 noundef %25, ptr noundef %26, i32 noundef %27, i32 noundef %28, ptr noundef null, ptr noundef @.str.206)
  br label %30

30:                                               ; preds = %20, %7
  %31 = load ptr, ptr %15, align 8
  %32 = icmp ne ptr %31, null
  br i1 %32, label %33, label %48

33:                                               ; preds = %30
  %34 = load ptr, ptr @rrlp_handle, align 8
  %35 = icmp ne ptr %34, null
  br i1 %35, label %36, label %42

36:                                               ; preds = %33
  %37 = load ptr, ptr @rrlp_handle, align 8
  %38 = load ptr, ptr %15, align 8
  %39 = load ptr, ptr %10, align 8
  %40 = load ptr, ptr @gparent_tree, align 8
  %41 = call i32 @call_dissector(ptr noundef %37, ptr noundef %38, ptr noundef %39, ptr noundef %40)
  br label %47

42:                                               ; preds = %33
  %43 = load ptr, ptr %15, align 8
  %44 = load ptr, ptr %10, align 8
  %45 = load ptr, ptr @gparent_tree, align 8
  %46 = call i32 @call_data_dissector(ptr noundef %43, ptr noundef %44, ptr noundef %45)
  br label %47

47:                                               ; preds = %42, %36
  br label %48

48:                                               ; preds = %47, %30
  %49 = load i32, ptr %12, align 4
  %50 = trunc i32 %49 to i16
  call void @llvm.lifetime.end.p0(i64 4, ptr %16) #4
  call void @llvm.lifetime.end.p0(i64 8, ptr %15) #4
  ret i16 %50
}