; Function Attrs: null_pointer_is_valid sspstrong uwtable
define internal noundef zeroext i16 @de_bssgp_rrlp_apdu(ptr noundef %0, ptr noundef %1, ptr noundef %2, i32 noundef %3, i32 noundef %4, ptr readnone captures(none) %5, i32 %6) #1 {
  %.not = icmp eq i32 %4, 0
  br i1 %.not, label %.thread, label %8

8:                                                ; preds = %7
  %9 = tail call ptr @tvb_new_subset_remaining(ptr noundef %0, i32 noundef %3)
  %10 = load i32, ptr @hf_bssgp_rrlp_apdu, align 4
  %11 = tail call ptr (ptr, i32, ptr, i32, i32, ptr, ptr, ...) @proto_tree_add_bytes_format(ptr noundef %1, i32 noundef %10, ptr noundef %0, i32 noundef %3, i32 noundef %4, ptr noundef null, ptr noundef nonnull @.str.206)
  %.not15 = icmp eq ptr %9, null
  br i1 %.not15, label %.thread, label %12

12:                                               ; preds = %8
  %13 = load ptr, ptr @rrlp_handle, align 8
  %.not16 = icmp eq ptr %13, null
  %14 = load ptr, ptr @gparent_tree, align 8
  br i1 %.not16, label %17, label %15

15:                                               ; preds = %12
  %16 = tail call i32 @call_dissector(ptr noundef nonnull %13, ptr noundef nonnull %9, ptr noundef %2, ptr noundef %14)
  br label %.thread

17:                                               ; preds = %12
  %18 = tail call i32 @call_data_dissector(ptr noundef nonnull %9, ptr noundef %2, ptr noundef %14)
  br label %.thread

.thread:                                          ; preds = %7, %15, %17, %8
  %19 = trunc i32 %4 to i16
  ret i16 %19
}